target datalayout = "e-m:e-p270:32:32-p271:32:32-p272:64:64-i64:64-i128:128-f80:128-n8:16:32:64-S128"
target triple = "x86_64-pc-linux-gnu"

%struct.QArrayData = type { %"class.QtPrivate::RefCount", i32, i32, i64 }
%"class.QtPrivate::RefCount" = type { %class.QBasicAtomicInteger }
%class.QBasicAtomicInteger = type { %"struct.std::atomic.28" }
%"struct.std::atomic.28" = type { %"struct.std::__atomic_base.29" }
%"struct.std::__atomic_base.29" = type { i32 }
%class.MeshDocument = type { %class.QObject, %class.GLLogStream, %class.FilterScript, %"class.std::__cxx11::list", %"class.std::__cxx11::list.22", i32, i32, %class.QString, %class.QString, %class.MeshDocumentStateData, i8, ptr, ptr }
%class.QObject = type { ptr, %class.QScopedPointer }
%class.QScopedPointer = type { ptr }
%class.GLLogStream = type { %class.QObject, i32, %class.QList, %class.QMultiMap }
%class.QList = type { %union.anon }
%union.anon = type { %struct.QListData }
%struct.QListData = type { ptr }
%class.QMultiMap = type { %class.QMap }
%class.QMap = type { ptr }
%class.FilterScript = type { %class.QObject, %class.QList.16 }
%class.QList.16 = type { %union.anon.18 }
%union.anon.18 = type { %struct.QListData }
%"class.std::__cxx11::list" = type { %"class.std::__cxx11::_List_base" }
%"class.std::__cxx11::_List_base" = type { %"struct.std::__cxx11::_List_base<MeshModel, std::allocator<MeshModel>>::_List_impl" }
%"struct.std::__cxx11::_List_base<MeshModel, std::allocator<MeshModel>>::_List_impl" = type { %"struct.std::__detail::_List_node_header" }
%"struct.std::__detail::_List_node_header" = type { %"struct.std::__detail::_List_node_base", i64 }
%"struct.std::__detail::_List_node_base" = type { ptr, ptr }
%"class.std::__cxx11::list.22" = type { %"class.std::__cxx11::_List_base.23" }
%"class.std::__cxx11::_List_base.23" = type { %"struct.std::__cxx11::_List_base<RasterModel, std::allocator<RasterModel>>::_List_impl" }
%"struct.std::__cxx11::_List_base<RasterModel, std::allocator<RasterModel>>::_List_impl" = type { %"struct.std::__detail::_List_node_header" }
%class.QString = type { ptr }
%class.MeshDocumentStateData = type { %class.QReadWriteLock, %class.QMap.27 }
%class.QReadWriteLock = type { %class.QAtomicPointer }
%class.QAtomicPointer = type { %class.QBasicAtomicPointer }
%class.QBasicAtomicPointer = type { %"struct.std::atomic" }
%"struct.std::atomic" = type { %"struct.std::__atomic_base" }
%"struct.std::__atomic_base" = type { ptr }
%class.QMap.27 = type { ptr }

@_ZTV12MeshDocument = external unnamed_addr constant { [14 x ptr] }, align 8
@_ZN10QArrayData11shared_nullE = external global [2 x %struct.QArrayData], align 16

; Function Attrs: mustprogress nounwind uwtable
define linkonce_odr void @_ZNSt15__new_allocatorISt10_List_nodeI11RasterModelEEC2Ev(ptr noundef nonnull align 1 dereferenceable(1) %0) unnamed_addr #4 comdat align 2 {
  %2 = alloca ptr, align 8
  store ptr %0, ptr %2, align 8
  ret void
}

; Function Attrs: mustprogress nounwind uwtable
define linkonce_odr void @_ZNSt8__detail17_List_node_header7_M_initEv(ptr noundef nonnull align 8 dereferenceable(24) %0) #4 comdat align 2 {
  %2 = alloca ptr, align 8
  store ptr %0, ptr %2, align 8
  %3 = load ptr, ptr %2, align 8
  %4 = getelementptr inbounds %"struct.std::__detail::_List_node_base", ptr %3, i32 0, i32 1
  store ptr %3, ptr %4, align 8
  %5 = getelementptr inbounds %"struct.std::__detail::_List_node_base", ptr %3, i32 0, i32 0
  store ptr %3, ptr %5, align 8
  %6 = getelementptr inbounds %"struct.std::__detail::_List_node_header", ptr %3, i32 0, i32 1
  store i64 0, ptr %6, align 8
  ret void
}

; Function Attrs: mustprogress nounwind uwtable
define linkonce_odr void @_ZNSt15__new_allocatorISt10_List_nodeI9MeshModelEEC2Ev(ptr noundef nonnull align 1 dereferenceable(1) %0) unnamed_addr #4 comdat align 2 {
  %2 = alloca ptr, align 8
  store ptr %0, ptr %2, align 8
  ret void
}

; Function Attrs: mustprogress nounwind uwtable
define linkonce_odr void @_ZNSaISt10_List_nodeI11RasterModelEEC2Ev(ptr noundef nonnull align 1 dereferenceable(1) %0) unnamed_addr #4 comdat align 2 {
  %2 = alloca ptr, align 8
  store ptr %0, ptr %2, align 8
  %3 = load ptr, ptr %2, align 8
  call void @_ZNSt15__new_allocatorISt10_List_nodeI11RasterModelEEC2Ev(ptr noundef nonnull align 1 dereferenceable(1) %3) #3
  ret void
}

; Function Attrs: mustprogress nounwind uwtable
define linkonce_odr void @_ZNSt8__detail17_List_node_headerC2Ev(ptr noundef nonnull align 8 dereferenceable(24) %0) unnamed_addr #4 comdat align 2 {
  %2 = alloca ptr, align 8
  store ptr %0, ptr %2, align 8
  %3 = load ptr, ptr %2, align 8
  call void @_ZNSt8__detail17_List_node_header7_M_initEv(ptr noundef nonnull align 8 dereferenceable(24) %3) #3
  ret void
}

; Function Attrs: mustprogress nounwind uwtable
define linkonce_odr void @_ZNSaISt10_List_nodeI9MeshModelEEC2Ev(ptr noundef nonnull align 1 dereferenceable(1) %0) unnamed_addr #4 comdat align 2 {
  %2 = alloca ptr, align 8
  store ptr %0, ptr %2, align 8
  %3 = load ptr, ptr %2, align 8
  call void @_ZNSt15__new_allocatorISt10_List_nodeI9MeshModelEEC2Ev(ptr noundef nonnull align 1 dereferenceable(1) %3) #3
  ret void
}

; Function Attrs: mustprogress nounwind uwtable
define linkonce_odr noundef ptr @_ZN10QArrayData10sharedNullEv() #4 comdat align 2 {
  ret ptr @_ZN10QArrayData11shared_nullE
}

; Function Attrs: mustprogress nounwind uwtable
define linkonce_odr void @_ZNSt7__cxx1110_List_baseI11RasterModelSaIS1_EE10_List_implC2Ev(ptr noundef nonnull align 8 dereferenceable(24) %0) unnamed_addr #4 comdat align 2 {
  %2 = alloca ptr, align 8
  store ptr %0, ptr %2, align 8
  %3 = load ptr, ptr %2, align 8
  call void @_ZNSaISt10_List_nodeI11RasterModelEEC2Ev(ptr noundef nonnull align 1 dereferenceable(1) %3) #3
  %4 = getelementptr inbounds %"struct.std::__cxx11::_List_base<RasterModel, std::allocator<RasterModel>>::_List_impl", ptr %3, i32 0, i32 0
  call void @_ZNSt8__detail17_List_node_headerC2Ev(ptr noundef nonnull align 8 dereferenceable(24) %4) #3
  ret void
}

; Function Attrs: mustprogress nounwind uwtable
define linkonce_odr void @_ZNSt7__cxx1110_List_baseI9MeshModelSaIS1_EE10_List_implC2Ev(ptr noundef nonnull align 8 dereferenceable(24) %0) unnamed_addr #4 comdat align 2 {
  %2 = alloca ptr, align 8
  store ptr %0, ptr %2, align 8
  %3 = load ptr, ptr %2, align 8
  call void @_ZNSaISt10_List_nodeI9MeshModelEEC2Ev(ptr noundef nonnull align 1 dereferenceable(1) %3) #3
  %4 = getelementptr inbounds %"struct.std::__cxx11::_List_base<MeshModel, std::allocator<MeshModel>>::_List_impl", ptr %3, i32 0, i32 0
  call void @_ZNSt8__detail17_List_node_headerC2Ev(ptr noundef nonnull align 8 dereferenceable(24) %4) #3
  ret void
}

; Function Attrs: mustprogress nounwind uwtable
define linkonce_odr noundef ptr @_ZN15QTypedArrayDataItE10sharedNullEv() #4 comdat align 2 {
  %1 = call noundef ptr @_ZN10QArrayData10sharedNullEv() #3
  ret ptr %1
}

; Function Attrs: mustprogress nounwind uwtable
define linkonce_odr void @_ZNSt7__cxx1110_List_baseI11RasterModelSaIS1_EEC2Ev(ptr noundef nonnull align 8 dereferenceable(24) %0) unnamed_addr #4 comdat align 2 {
  %2 = alloca ptr, align 8
  store ptr %0, ptr %2, align 8
  %3 = load ptr, ptr %2, align 8
  %4 = getelementptr inbounds %"class.std::__cxx11::_List_base.23", ptr %3, i32 0, i32 0
  call void @_ZNSt7__cxx1110_List_baseI11RasterModelSaIS1_EE10_List_implC2Ev(ptr noundef nonnull align 8 dereferenceable(24) %4) #3
  ret void
}

; Function Attrs: mustprogress nounwind uwtable
define linkonce_odr void @_ZNSt7__cxx1110_List_baseI9MeshModelSaIS1_EEC2Ev(ptr noundef nonnull align 8 dereferenceable(24) %0) unnamed_addr #4 comdat align 2 {
  %2 = alloca ptr, align 8
  store ptr %0, ptr %2, align 8
  %3 = load ptr, ptr %2, align 8
  %4 = getelementptr inbounds %"class.std::__cxx11::_List_base", ptr %3, i32 0, i32 0
  call void @_ZNSt7__cxx1110_List_baseI9MeshModelSaIS1_EE10_List_implC2Ev(ptr noundef nonnull align 8 dereferenceable(24) %4) #3
  ret void
}

; Function Attrs: mustprogress nounwind uwtable
define linkonce_odr void @_ZN7QStringC2Ev(ptr noundef nonnull align 8 dereferenceable(8) %0) unnamed_addr #4 comdat align 2 {
  %2 = alloca ptr, align 8
  store ptr %0, ptr %2, align 8
  %3 = load ptr, ptr %2, align 8
  %4 = getelementptr inbounds %class.QString, ptr %3, i32 0, i32 0
  %5 = call noundef ptr @_ZN15QTypedArrayDataItE10sharedNullEv() #3
  store ptr %5, ptr %4, align 8
  ret void
}

; Function Attrs: mustprogress nounwind uwtable
define linkonce_odr void @_ZNSt7__cxx114listI11RasterModelSaIS1_EEC2Ev(ptr noundef nonnull align 8 dereferenceable(24) %0) unnamed_addr #4 comdat align 2 {
  %2 = alloca ptr, align 8
  store ptr %0, ptr %2, align 8
  %3 = load ptr, ptr %2, align 8
  call void @_ZNSt7__cxx1110_List_baseI11RasterModelSaIS1_EEC2Ev(ptr noundef nonnull align 8 dereferenceable(24) %3) #3
  ret void
}

; Function Attrs: mustprogress nounwind uwtable
define linkonce_odr void @_ZNSt7__cxx114listI9MeshModelSaIS1_EEC2Ev(ptr noundef nonnull align 8 dereferenceable(24) %0) unnamed_addr #4 comdat align 2 {
  %2 = alloca ptr, align 8
  store ptr %0, ptr %2, align 8
  %3 = load ptr, ptr %2, align 8
  call void @_ZNSt7__cxx1110_List_baseI9MeshModelSaIS1_EEC2Ev(ptr noundef nonnull align 8 dereferenceable(24) %3) #3
  ret void
}

; Function Attrs: mustprogress uwtable
define void @_ZN12MeshDocumentC2Ev(ptr noundef nonnull align 8 dereferenceable(192) %0) unnamed_addr #5 align 2 personality ptr @__gxx_personality_v0 {
  %2 = alloca ptr, align 8
  %3 = alloca ptr, align 8
  %4 = alloca i32, align 4
  store ptr %0, ptr %2, align 8
  %5 = load ptr, ptr %2, align 8
  call void @_ZN7QObjectC2EPS_(ptr noundef nonnull align 8 dereferenceable(16) %5, ptr noundef null)
  store ptr getelementptr inbounds ({ [14 x ptr] }, ptr @_ZTV12MeshDocument, i32 0, i32 0, i32 2), ptr %5, align 8
  %6 = getelementptr inbounds %class.MeshDocument, ptr %5, i32 0, i32 1
  invoke void @_ZN11GLLogStreamC1Ev(ptr noundef nonnull align 8 dereferenceable(40) %6)
          to label %7 unwind label %21

7:                                                ; preds = %1
  %8 = getelementptr inbounds %class.MeshDocument, ptr %5, i32 0, i32 2
  invoke void @_ZN12FilterScriptC1Ev(ptr noundef nonnull align 8 dereferenceable(24) %8)
          to label %9 unwind label %25

9:                                                ; preds = %7
  %10 = getelementptr inbounds %class.MeshDocument, ptr %5, i32 0, i32 3
  call void @_ZNSt7__cxx114listI9MeshModelSaIS1_EEC2Ev(ptr noundef nonnull align 8 dereferenceable(24) %10) #3
  %11 = getelementptr inbounds %class.MeshDocument, ptr %5, i32 0, i32 4
  call void @_ZNSt7__cxx114listI11RasterModelSaIS1_EEC2Ev(ptr noundef nonnull align 8 dereferenceable(24) %11) #3
  %12 = getelementptr inbounds %class.MeshDocument, ptr %5, i32 0, i32 7
  call void @_ZN7QStringC2Ev(ptr noundef nonnull align 8 dereferenceable(8) %12) #3
  %13 = getelementptr inbounds %class.MeshDocument, ptr %5, i32 0, i32 8
  call void @_ZN7QStringC2Ev(ptr noundef nonnull align 8 dereferenceable(8) %13) #3
  %14 = getelementptr inbounds %class.MeshDocument, ptr %5, i32 0, i32 9
  invoke void @_ZN21MeshDocumentStateDataC1Ev(ptr noundef nonnull align 8 dereferenceable(16) %14)
          to label %15 unwind label %29

15:                                               ; preds = %9
  %16 = getelementptr inbounds %class.MeshDocument, ptr %5, i32 0, i32 5
  store i32 0, ptr %16, align 8
  %17 = getelementptr inbounds %class.MeshDocument, ptr %5, i32 0, i32 6
  store i32 0, ptr %17, align 4
  %18 = getelementptr inbounds %class.MeshDocument, ptr %5, i32 0, i32 11
  store ptr null, ptr %18, align 8
  %19 = getelementptr inbounds %class.MeshDocument, ptr %5, i32 0, i32 12
  store ptr null, ptr %19, align 8
  %20 = getelementptr inbounds %class.MeshDocument, ptr %5, i32 0, i32 10
  store i8 0, ptr %20, align 8
  ret void

21:                                               ; preds = %1
  %22 = landingpad { ptr, i32 }
          cleanup
  %23 = extractvalue { ptr, i32 } %22, 0
  store ptr %23, ptr %3, align 8
  %24 = extractvalue { ptr, i32 } %22, 1
  store i32 %24, ptr %4, align 4
  br label %34

25:                                               ; preds = %7
  %26 = landingpad { ptr, i32 }
          cleanup
  %27 = extractvalue { ptr, i32 } %26, 0
  store ptr %27, ptr %3, align 8
  %28 = extractvalue { ptr, i32 } %26, 1
  store i32 %28, ptr %4, align 4
  br label %33

29:                                               ; preds = %9
  %30 = landingpad { ptr, i32 }
          cleanup
  %31 = extractvalue { ptr, i32 } %30, 0
  store ptr %31, ptr %3, align 8
  %32 = extractvalue { ptr, i32 } %30, 1
  store i32 %32, ptr %4, align 4
  call void @_ZN7QStringD2Ev(ptr noundef nonnull align 8 dereferenceable(8) %13) #3
  call void @_ZN7QStringD2Ev(ptr noundef nonnull align 8 dereferenceable(8) %12) #3
  call void @_ZNSt7__cxx114listI11RasterModelSaIS1_EED2Ev(ptr noundef nonnull align 8 dereferenceable(24) %11) #3
  call void @_ZNSt7__cxx114listI9MeshModelSaIS1_EED2Ev(ptr noundef nonnull align 8 dereferenceable(24) %10) #3
  call void @_ZN12FilterScriptD1Ev(ptr noundef nonnull align 8 dereferenceable(24) %8) #3
  br label %33

33:                                               ; preds = %29, %25
  call void @_ZN11GLLogStreamD2Ev(ptr noundef nonnull align 8 dereferenceable(40) %6) #3
  br label %34

34:                                               ; preds = %33, %21
  call void @_ZN7QObjectD2Ev(ptr noundef nonnull align 8 dereferenceable(16) %5) #3
  br label %35

35:                                               ; preds = %34
  %36 = load ptr, ptr %3, align 8
  %37 = load i32, ptr %4, align 4
  %38 = insertvalue { ptr, i32 } poison, ptr %36, 0
  %39 = insertvalue { ptr, i32 } %38, i32 %37, 1
  resume { ptr, i32 } %39
}