; Function Attrs: mustprogress uwtable
define void @_ZN12MeshDocumentC2Ev(ptr noundef nonnull align 8 dereferenceable(192) %0) unnamed_addr #9 align 2 personality ptr @__gxx_personality_v0 {
  tail call void @_ZN7QObjectC2EPS_(ptr noundef nonnull align 8 dereferenceable(16) %0, ptr noundef null)
  store ptr getelementptr inbounds ({ [14 x ptr] }, ptr @_ZTV12MeshDocument, i64 0, i32 0, i64 2), ptr %0, align 8
  %2 = getelementptr inbounds i8, ptr %0, i64 16
  invoke void @_ZN11GLLogStreamC1Ev(ptr noundef nonnull align 8 dereferenceable(40) %2)
          to label %3 unwind label %20

3:                                                ; preds = %1
  %4 = getelementptr inbounds i8, ptr %0, i64 56
  invoke void @_ZN12FilterScriptC1Ev(ptr noundef nonnull align 8 dereferenceable(24) %4)
          to label %5 unwind label %22

5:                                                ; preds = %3
  %6 = getelementptr inbounds i8, ptr %0, i64 80
  %7 = getelementptr inbounds i8, ptr %0, i64 88
  store ptr %6, ptr %7, align 8
  store ptr %6, ptr %6, align 8
  %8 = getelementptr inbounds i8, ptr %0, i64 96
  store i64 0, ptr %8, align 8
  %9 = getelementptr inbounds i8, ptr %0, i64 104
  %10 = getelementptr inbounds i8, ptr %0, i64 112
  store ptr %9, ptr %10, align 8
  store ptr %9, ptr %9, align 8
  %11 = getelementptr inbounds i8, ptr %0, i64 120
  store i64 0, ptr %11, align 8
  %12 = getelementptr inbounds i8, ptr %0, i64 136
  store ptr @_ZN10QArrayData11shared_nullE, ptr %12, align 8
  %13 = getelementptr inbounds i8, ptr %0, i64 144
  store ptr @_ZN10QArrayData11shared_nullE, ptr %13, align 8
  %14 = getelementptr inbounds i8, ptr %0, i64 152
  invoke void @_ZN21MeshDocumentStateDataC1Ev(ptr noundef nonnull align 8 dereferenceable(16) %14)
          to label %15 unwind label %24

15:                                               ; preds = %5
  %16 = getelementptr inbounds i8, ptr %0, i64 128
  store i32 0, ptr %16, align 8
  %17 = getelementptr inbounds i8, ptr %0, i64 132
  store i32 0, ptr %17, align 4
  %18 = getelementptr inbounds i8, ptr %0, i64 176
  %19 = getelementptr inbounds i8, ptr %0, i64 168
  store i8 0, ptr %19, align 8
  tail call void @llvm.memset.p0.i64(ptr noundef nonnull align 8 dereferenceable(16) %18, i8 0, i64 16, i1 false)
  ret void

20:                                               ; preds = %1
  %21 = landingpad { ptr, i32 }
          cleanup
  br label %27

22:                                               ; preds = %3
  %23 = landingpad { ptr, i32 }
          cleanup
  br label %26

24:                                               ; preds = %5
  %25 = landingpad { ptr, i32 }
          cleanup
  tail call void @_ZN7QStringD2Ev(ptr noundef nonnull align 8 dereferenceable(8) %13) #28
  tail call void @_ZN7QStringD2Ev(ptr noundef nonnull align 8 dereferenceable(8) %12) #28
  tail call void @_ZNSt7__cxx114listI11RasterModelSaIS1_EED2Ev(ptr noundef nonnull align 8 dereferenceable(24) %9) #28
  tail call void @_ZNSt7__cxx114listI9MeshModelSaIS1_EED2Ev(ptr noundef nonnull align 8 dereferenceable(24) %6) #28
  tail call void @_ZN12FilterScriptD1Ev(ptr noundef nonnull align 8 dereferenceable(24) %4) #28
  br label %26

26:                                               ; preds = %24, %22
  %.pn = phi { ptr, i32 } [ %25, %24 ], [ %23, %22 ]
  tail call void @_ZN11GLLogStreamD2Ev(ptr noundef nonnull align 8 dereferenceable(40) %2) #28
  br label %27

27:                                               ; preds = %26, %20
  %.pn.pn = phi { ptr, i32 } [ %.pn, %26 ], [ %21, %20 ]
  tail call void @_ZN7QObjectD2Ev(ptr noundef nonnull align 8 dereferenceable(16) %0) #28
  resume { ptr, i32 } %.pn.pn
}